; Function Attrs: mustprogress uwtable
define noundef zeroext i1 @_ZNK3nix15CompareGoalPtrsclERKSt10shared_ptrINS_4GoalEES5_(ptr nocapture nonnull readnone align 1 %0, ptr nocapture noundef nonnull readonly align 8 dereferenceable(16) %1, ptr nocapture noundef nonnull readonly align 8 dereferenceable(16) %2) local_unnamed_addr #4 align 2 personality ptr @__gxx_personality_v0 {
  %4 = alloca %"class.std::__cxx11::basic_string", align 8
  %5 = alloca %"class.std::__cxx11::basic_string", align 8
  %6 = load ptr, ptr %1, align 8
  %7 = load ptr, ptr %6, align 8
  %8 = getelementptr inbounds i8, ptr %7, i64 56
  %9 = load ptr, ptr %8, align 8
  call void %9(ptr dead_on_unwind nonnull writable sret(%"class.std::__cxx11::basic_string") align 8 %4, ptr noundef nonnull align 8 dereferenceable(720) %6)
  %10 = load ptr, ptr %2, align 8
  %11 = load ptr, ptr %10, align 8
  %12 = getelementptr inbounds i8, ptr %11, i64 56
  %13 = load ptr, ptr %12, align 8
  invoke void %13(ptr dead_on_unwind nonnull writable sret(%"class.std::__cxx11::basic_string") align 8 %5, ptr noundef nonnull align 8 dereferenceable(720) %10)
          to label %14 unwind label %32

14:                                               ; preds = %3
  %15 = getelementptr inbounds i8, ptr %4, i64 8
  %16 = load i64, ptr %15, align 8
  %17 = getelementptr inbounds i8, ptr %5, i64 8
  %18 = load i64, ptr %17, align 8
  %.sroa.speculated.i.i = call i64 @llvm.umin.i64(i64 %18, i64 %16)
  %19 = icmp eq i64 %.sroa.speculated.i.i, 0
  %.pre.pre = load ptr, ptr %5, align 8
  br i1 %19, label %_ZNSt11char_traitsIcE7compareEPKcS2_m.exit.thread.i.i, label %_ZNSt11char_traitsIcE7compareEPKcS2_m.exit.i.i

_ZNSt11char_traitsIcE7compareEPKcS2_m.exit.i.i:   ; preds = %14
  %20 = load ptr, ptr %4, align 8
  %21 = call i32 @memcmp(ptr noundef %20, ptr noundef %.pre.pre, i64 noundef %.sroa.speculated.i.i) #23
  %.not.i.i = icmp eq i32 %21, 0
  br i1 %.not.i.i, label %_ZNSt11char_traitsIcE7compareEPKcS2_m.exit.thread.i.i, label %_ZStssIcSt11char_traitsIcESaIcEEDTclsr8__detailE21__char_traits_cmp_catIT0_ELi0EEERKNSt7__cxx1112basic_stringIT_S3_T1_EESB_.exit

_ZNSt11char_traitsIcE7compareEPKcS2_m.exit.thread.i.i: ; preds = %_ZNSt11char_traitsIcE7compareEPKcS2_m.exit.i.i, %14
  %22 = sub i64 %16, %18
  %spec.select7.i.i.i = call i64 @llvm.smax.i64(i64 %22, i64 -2147483648)
  %.08.i.i.i = call i64 @llvm.smin.i64(i64 %spec.select7.i.i.i, i64 2147483647)
  %.0.i6.i.i = trunc i64 %.08.i.i.i to i32
  br label %_ZStssIcSt11char_traitsIcESaIcEEDTclsr8__detailE21__char_traits_cmp_catIT0_ELi0EEERKNSt7__cxx1112basic_stringIT_S3_T1_EESB_.exit

_ZStssIcSt11char_traitsIcESaIcEEDTclsr8__detailE21__char_traits_cmp_catIT0_ELi0EEERKNSt7__cxx1112basic_stringIT_S3_T1_EESB_.exit: ; preds = %_ZNSt11char_traitsIcE7compareEPKcS2_m.exit.i.i, %_ZNSt11char_traitsIcE7compareEPKcS2_m.exit.thread.i.i
  %.0.i.i = phi i32 [ %21, %_ZNSt11char_traitsIcE7compareEPKcS2_m.exit.i.i ], [ %.0.i6.i.i, %_ZNSt11char_traitsIcE7compareEPKcS2_m.exit.thread.i.i ]
  %23 = getelementptr inbounds i8, ptr %5, i64 16
  %24 = icmp eq ptr %.pre.pre, %23
  br i1 %24, label %_ZNKSt7__cxx1112basic_stringIcSt11char_traitsIcESaIcEE11_M_is_localEv.exit.thread.i.i, label %_ZNKSt7__cxx1112basic_stringIcSt11char_traitsIcESaIcEE11_M_is_localEv.exit.i.i

_ZNKSt7__cxx1112basic_stringIcSt11char_traitsIcESaIcEE11_M_is_localEv.exit.thread.i.i: ; preds = %_ZStssIcSt11char_traitsIcESaIcEEDTclsr8__detailE21__char_traits_cmp_catIT0_ELi0EEERKNSt7__cxx1112basic_stringIT_S3_T1_EESB_.exit
  %25 = icmp ult i64 %18, 16
  call void @llvm.assume(i1 %25)
  br label %_ZNSt7__cxx1112basic_stringIcSt11char_traitsIcESaIcEED2Ev.exit

_ZNKSt7__cxx1112basic_stringIcSt11char_traitsIcESaIcEE11_M_is_localEv.exit.i.i: ; preds = %_ZStssIcSt11char_traitsIcESaIcEEDTclsr8__detailE21__char_traits_cmp_catIT0_ELi0EEERKNSt7__cxx1112basic_stringIT_S3_T1_EESB_.exit
  call void @_ZdlPv(ptr noundef %.pre.pre) #24
  br label %_ZNSt7__cxx1112basic_stringIcSt11char_traitsIcESaIcEED2Ev.exit

_ZNSt7__cxx1112basic_stringIcSt11char_traitsIcESaIcEED2Ev.exit: ; preds = %_ZNKSt7__cxx1112basic_stringIcSt11char_traitsIcESaIcEE11_M_is_localEv.exit.thread.i.i, %_ZNKSt7__cxx1112basic_stringIcSt11char_traitsIcESaIcEE11_M_is_localEv.exit.i.i
  call void @_ZNSaIcED2Ev(ptr noundef nonnull align 1 dereferenceable(1) %5) #23
  %26 = load ptr, ptr %4, align 8
  %27 = getelementptr inbounds i8, ptr %4, i64 16
  %28 = icmp eq ptr %26, %27
  br i1 %28, label %_ZNKSt7__cxx1112basic_stringIcSt11char_traitsIcESaIcEE11_M_is_localEv.exit.thread.i.i4, label %_ZNKSt7__cxx1112basic_stringIcSt11char_traitsIcESaIcEE11_M_is_localEv.exit.i.i3

_ZNKSt7__cxx1112basic_stringIcSt11char_traitsIcESaIcEE11_M_is_localEv.exit.thread.i.i4: ; preds = %_ZNSt7__cxx1112basic_stringIcSt11char_traitsIcESaIcEED2Ev.exit
  %29 = load i64, ptr %15, align 8
  %30 = icmp ult i64 %29, 16
  call void @llvm.assume(i1 %30)
  br label %_ZNSt7__cxx1112basic_stringIcSt11char_traitsIcESaIcEED2Ev.exit5

_ZNKSt7__cxx1112basic_stringIcSt11char_traitsIcESaIcEE11_M_is_localEv.exit.i.i3: ; preds = %_ZNSt7__cxx1112basic_stringIcSt11char_traitsIcESaIcEED2Ev.exit
  call void @_ZdlPv(ptr noundef %26) #24
  br label %_ZNSt7__cxx1112basic_stringIcSt11char_traitsIcESaIcEED2Ev.exit5

_ZNSt7__cxx1112basic_stringIcSt11char_traitsIcESaIcEED2Ev.exit5: ; preds = %_ZNKSt7__cxx1112basic_stringIcSt11char_traitsIcESaIcEE11_M_is_localEv.exit.thread.i.i4, %_ZNKSt7__cxx1112basic_stringIcSt11char_traitsIcESaIcEE11_M_is_localEv.exit.i.i3
  %31 = icmp slt i32 %.0.i.i, 0
  call void @_ZNSaIcED2Ev(ptr noundef nonnull align 1 dereferenceable(1) %4) #23
  ret i1 %31

32:                                               ; preds = %3
  %33 = landingpad { ptr, i32 }
          cleanup
  call void @_ZNSt7__cxx1112basic_stringIcSt11char_traitsIcESaIcEED2Ev(ptr noundef nonnull align 8 dereferenceable(32) %4) #23
  resume { ptr, i32 } %33
}